ccopy_reg
_reconstructor
p1
(cmypoly
mypoly
p2
c__builtin__
object
p3
NtRp4
(dp5
S'internal'
p6
(dp7
I0
g1
(cpuiseuxPoly
puiseux
p8
g3
NtRp9
(dp10
g6
(dp11
I0
c__builtin__
complex
p12
(F0.50520937030725377
F0.50712444676236157
tRp13
sI1
g12
(F0.49038898702181577
F0.30754954148212899
tRp14
sI5
g12
(F0.2457624405635892
F0.82577037489781369
tRp15
sI7
g12
(F0.06526249891865088
F0.65666080288053641
tRp16
ssbsI1
g1
(g8
g3
NtRp17
(dp18
g6
(dp19
I0
g12
(F0.0060511306434092305
F0.95087408079132762
tRp20
sI4
g12
(F0.21191504737751077
F0.77488318918219601
tRp21
sI5
g12
(F0.24657053679523699
F0.36492226224315794
tRp22
sI6
g12
(F0.09939379391482539
F0.19142173088543868
tRp23
sI7
g12
(F0.30504689204766611
F0.37713771545739194
tRp24
sI8
g12
(F0.56675084115356833
F0.56849850968735927
tRp25
ssbsI2
g1
(g8
g3
NtRp26
(dp27
g6
(dp28
I8
g12
(F0.15034170475930775
F0.1741941001132068
tRp29
sI1
g12
(F0.82721602671471361
F0.4007782964134492
tRp30
sI5
g12
(F0.20326867924607372
F0.7896182921993623
tRp31
ssbsI3
g1
(g8
g3
NtRp32
(dp33
g6
(dp34
I0
g12
(F0.16401118102438583
F0.13352665714082912
tRp35
sI2
g12
(F0.41898397017403988
F0.07616736898724541
tRp36
sI3
g12
(F0.80081000755960341
F0.10732649231057834
tRp37
sI4
g12
(F0.56727527855457882
F0.18372149938026106
tRp38
sI6
g12
(F0.93239815239641577
F0.40701736733538862
tRp39
sI7
g12
(F0.10821195688141871
F0.27799745500175099
tRp40
ssbsI4
g1
(g8
g3
NtRp41
(dp42
g6
(dp43
I8
g12
(F0.29206405608174024
F0.70306057463443505
tRp44
sI2
g12
(F0.22331898344383982
F0.81660685928343346
tRp45
ssbsI5
g1
(g8
g3
NtRp46
(dp47
g6
(dp48
I0
g12
(F0.86148630369952905
F0.50718754233746355
tRp49
sI1
g12
(F0.17905707091573175
F0.30468417140774462
tRp50
sI2
g12
(F0.47044903967522766
F0.20132443117152243
tRp51
sI3
g12
(F0.7736853280309155
F0.5382048345851107
tRp52
sI4
g12
(F0.22721526961265848
F0.036669627866294352
tRp53
sI5
g12
(F0.46696697632659467
F0.89743628335608205
tRp54
sI8
g12
(F0.49988266262499437
F0.27308095032863222
tRp55
ssbsI6
g1
(g8
g3
NtRp56
(dp57
g6
(dp58
I0
g12
(F0.17307903460508389
F0.02135827948607949
tRp59
sI4
g12
(F0.44868537542961251
F0.51446136595883163
tRp60
sI5
g12
(F0.24263655080072588
F0.87215389410280952
tRp61
sI7
g12
(F0.51861217199915188
F0.56787267579973333
tRp62
ssbsI7
g1
(g8
g3
NtRp63
(dp64
g6
(dp65
I1
g12
(F0.40003321444023754
F0.46452154617114816
tRp66
sI2
g12
(F0.52223002471803615
F0.10629251845309728
tRp67
sI3
g12
(F0.34249478114237997
F0.76593749430696845
tRp68
sI4
g12
(F0.68665577281697399
F0.99405037791025419
tRp69
sI5
g12
(F0.066226704436715744
F0.0012774204257668398
tRp70
sI6
g12
(F0.55776747530698467
F0.35424686805044381
tRp71
ssbsI8
g1
(g8
g3
NtRp72
(dp73
g6
(dp74
I8
g12
(F0.45466135827961962
F0.66385651206327967
tRp75
sI2
g12
(F0.5162370757328677
F0.50636050062851679
tRp76
sI5
g12
(F0.60221743928176263
F0.45616596270597787
tRp77
sI7
g12
(F0.62925467412652769
F0.012022362833413069
tRp78
ssbssb.